; Function Attrs: nounwind uwtable
define hidden void @png_set_keep_unknown_chunks(ptr noalias noundef %0, i32 noundef %1, ptr noundef readonly %2, i32 noundef %3) local_unnamed_addr #2 {
  %5 = icmp eq ptr %0, null
  br i1 %5, label %72, label %6

6:                                                ; preds = %4
  %or.cond = icmp ugt i32 %1, 3
  br i1 %or.cond, label %7, label %8

7:                                                ; preds = %6
  tail call void @png_app_error(ptr noundef nonnull %0, ptr noundef nonnull @.str.44) #12
  br label %72

8:                                                ; preds = %6
  %9 = icmp slt i32 %3, 1
  br i1 %9, label %10, label %13

10:                                               ; preds = %8
  %11 = getelementptr inbounds i8, ptr %0, i64 848
  store i32 %1, ptr %11, align 8
  %12 = icmp eq i32 %3, 0
  br i1 %12, label %72, label %.thread

13:                                               ; preds = %8
  %14 = icmp eq ptr %2, null
  br i1 %14, label %15, label %.thread

15:                                               ; preds = %13
  tail call void @png_app_error(ptr noundef nonnull %0, ptr noundef nonnull @.str.45) #12
  br label %72

.thread:                                          ; preds = %10, %13
  %.070 = phi ptr [ %2, %13 ], [ @png_set_keep_unknown_chunks.chunks_to_ignore, %10 ]
  %.066 = phi i32 [ %3, %13 ], [ 18, %10 ]
  %16 = getelementptr inbounds i8, ptr %0, i64 852
  %17 = load i32, ptr %16, align 4
  %18 = getelementptr inbounds i8, ptr %0, i64 856
  %19 = load ptr, ptr %18, align 8
  %20 = icmp eq ptr %19, null
  %spec.store.select = select i1 %20, i32 0, i32 %17
  %21 = add i32 %spec.store.select, %.066
  %22 = icmp ugt i32 %21, 858993459
  br i1 %22, label %23, label %24

23:                                               ; preds = %.thread
  tail call void @png_app_error(ptr noundef nonnull %0, ptr noundef nonnull @.str.46) #12
  br label %72

24:                                               ; preds = %.thread
  %.not = icmp eq i32 %1, 0
  br i1 %.not, label %33, label %25

25:                                               ; preds = %24
  %26 = mul nuw i32 %21, 5
  %27 = zext i32 %26 to i64
  %28 = tail call noalias ptr @png_malloc(ptr noundef nonnull %0, i64 noundef %27) #12
  %.not79 = icmp eq i32 %spec.store.select, 0
  br i1 %.not79, label %34, label %29

29:                                               ; preds = %25
  %30 = load ptr, ptr %18, align 8
  %31 = mul i32 %spec.store.select, 5
  %32 = zext i32 %31 to i64
  tail call void @llvm.memcpy.p0.p0.i64(ptr align 1 %28, ptr align 1 %30, i64 %32, i1 false)
  br label %34

33:                                               ; preds = %24
  %.not78 = icmp eq i32 %spec.store.select, 0
  br i1 %.not78, label %thread-pre-split, label %.lr.ph.i.preheader.us.preheader

34:                                               ; preds = %25, %29
  %.not80 = icmp eq ptr %28, null
  br i1 %.not80, label %thread-pre-split, label %.preheader89

.preheader89:                                     ; preds = %34
  %35 = trunc nuw nsw i32 %1 to i8
  br i1 %.not, label %.preheader89.split.us, label %.preheader89.split.preheader

.preheader89.split.preheader:                     ; preds = %.preheader89
  %wide.trip.count = zext nneg i32 %.066 to i64
  br label %.preheader89.split

.preheader89.split.us:                            ; preds = %.preheader89
  %.not24.i.us = icmp eq i32 %spec.store.select, 0
  br i1 %.not24.i.us, label %._crit_edge.thread, label %.lr.ph.i.preheader.us.preheader

.lr.ph.i.preheader.us.preheader:                  ; preds = %33, %.preheader89.split.us
  %.068115118121 = phi ptr [ %28, %.preheader89.split.us ], [ %19, %33 ]
  %wide.trip.count109 = zext nneg i32 %.066 to i64
  br label %.lr.ph.i.preheader.us

.lr.ph.i.preheader.us:                            ; preds = %.lr.ph.i.preheader.us.preheader, %add_one_chunk.exit.us
  %indvars.iv105 = phi i64 [ 0, %.lr.ph.i.preheader.us.preheader ], [ %indvars.iv.next106, %add_one_chunk.exit.us ]
  %36 = mul i64 %indvars.iv105, 5
  %37 = and i64 %36, 4294967295
  %38 = getelementptr inbounds i8, ptr %.070, i64 %37
  br label %.lr.ph.i.us

.lr.ph.i.us:                                      ; preds = %.lr.ph.i.preheader.us, %40
  %.023.i.us = phi i32 [ %41, %40 ], [ 0, %.lr.ph.i.preheader.us ]
  %.01722.i.us = phi ptr [ %42, %40 ], [ %.068115118121, %.lr.ph.i.preheader.us ]
  %bcmp.i.us = tail call i32 @bcmp(ptr noundef nonnull dereferenceable(4) %.01722.i.us, ptr noundef nonnull readonly dereferenceable(4) %38, i64 4)
  %39 = icmp eq i32 %bcmp.i.us, 0
  br i1 %39, label %.sink.split.i.loopexit.us, label %40

40:                                               ; preds = %.lr.ph.i.us
  %41 = add nuw i32 %.023.i.us, 1
  %42 = getelementptr inbounds i8, ptr %.01722.i.us, i64 5
  %exitcond.not.i.us = icmp eq i32 %41, %spec.store.select
  br i1 %exitcond.not.i.us, label %add_one_chunk.exit.us, label %.lr.ph.i.us, !llvm.loop !32

add_one_chunk.exit.us:                            ; preds = %40, %.sink.split.i.loopexit.us
  %indvars.iv.next106 = add nuw nsw i64 %indvars.iv105, 1
  %exitcond110.not = icmp eq i64 %indvars.iv.next106, %wide.trip.count109
  br i1 %exitcond110.not, label %.preheader, label %.lr.ph.i.preheader.us, !llvm.loop !33

.sink.split.i.loopexit.us:                        ; preds = %.lr.ph.i.us
  %43 = getelementptr inbounds i8, ptr %.01722.i.us, i64 4
  store i8 0, ptr %43, align 1
  br label %add_one_chunk.exit.us

.preheader:                                       ; preds = %.sink.split.i, %add_one_chunk.exit.us
  %.068115117 = phi ptr [ %.068115118121, %add_one_chunk.exit.us ], [ %28, %.sink.split.i ]
  %.us-phi = phi i32 [ %spec.store.select, %add_one_chunk.exit.us ], [ %.016.ph.i, %.sink.split.i ]
  %.not99 = icmp eq i32 %.us-phi, 0
  br i1 %.not99, label %._crit_edge.thread, label %.lr.ph

.preheader89.split:                               ; preds = %.preheader89.split.preheader, %.sink.split.i
  %indvars.iv = phi i64 [ 0, %.preheader89.split.preheader ], [ %indvars.iv.next, %.sink.split.i ]
  %.06591 = phi i32 [ %spec.store.select, %.preheader89.split.preheader ], [ %.016.ph.i, %.sink.split.i ]
  %44 = mul i64 %indvars.iv, 5
  %45 = and i64 %44, 4294967295
  %46 = getelementptr inbounds i8, ptr %.070, i64 %45
  %.not24.i = icmp eq i32 %.06591, 0
  br i1 %.not24.i, label %._crit_edge.i, label %.lr.ph.i

.lr.ph.i:                                         ; preds = %.preheader89.split, %48
  %.023.i = phi i32 [ %49, %48 ], [ 0, %.preheader89.split ]
  %.01722.i = phi ptr [ %50, %48 ], [ %28, %.preheader89.split ]
  %bcmp.i = tail call i32 @bcmp(ptr noundef nonnull dereferenceable(4) %.01722.i, ptr noundef nonnull readonly dereferenceable(4) %46, i64 4)
  %47 = icmp eq i32 %bcmp.i, 0
  br i1 %47, label %.sink.split.i, label %48

48:                                               ; preds = %.lr.ph.i
  %49 = add nuw i32 %.023.i, 1
  %50 = getelementptr inbounds i8, ptr %.01722.i, i64 5
  %exitcond.not.i = icmp eq i32 %49, %.06591
  br i1 %exitcond.not.i, label %._crit_edge.i, label %.lr.ph.i, !llvm.loop !32

._crit_edge.i:                                    ; preds = %48, %.preheader89.split
  %.017.lcssa.i = phi ptr [ %28, %.preheader89.split ], [ %50, %48 ]
  %51 = add i32 %.06591, 1
  %52 = load i32, ptr %46, align 1
  store i32 %52, ptr %.017.lcssa.i, align 1
  br label %.sink.split.i

.sink.split.i:                                    ; preds = %.lr.ph.i, %._crit_edge.i
  %.017.lcssa.sink.i = phi ptr [ %.017.lcssa.i, %._crit_edge.i ], [ %.01722.i, %.lr.ph.i ]
  %.016.ph.i = phi i32 [ %51, %._crit_edge.i ], [ %.06591, %.lr.ph.i ]
  %53 = getelementptr inbounds i8, ptr %.017.lcssa.sink.i, i64 4
  store i8 %35, ptr %53, align 1
  %indvars.iv.next = add nuw nsw i64 %indvars.iv, 1
  %exitcond.not = icmp eq i64 %indvars.iv.next, %wide.trip.count
  br i1 %exitcond.not, label %.preheader, label %.preheader89.split, !llvm.loop !33

.lr.ph:                                           ; preds = %.preheader, %61
  %.198 = phi i32 [ %62, %61 ], [ 0, %.preheader ]
  %.06297 = phi ptr [ %.163, %61 ], [ %.068115117, %.preheader ]
  %.06495 = phi ptr [ %63, %61 ], [ %.068115117, %.preheader ]
  %.16794 = phi i32 [ %.2, %61 ], [ 0, %.preheader ]
  %54 = getelementptr inbounds i8, ptr %.06495, i64 4
  %55 = load i8, ptr %54, align 1
  %.not84 = icmp eq i8 %55, 0
  br i1 %.not84, label %61, label %56

56:                                               ; preds = %.lr.ph
  %.not85 = icmp eq ptr %.06297, %.06495
  br i1 %.not85, label %58, label %57

57:                                               ; preds = %56
  tail call void @llvm.memcpy.p0.p0.i64(ptr noundef nonnull align 1 dereferenceable(5) %.06297, ptr noundef nonnull align 1 dereferenceable(5) %.06495, i64 5, i1 false)
  br label %58

58:                                               ; preds = %57, %56
  %59 = getelementptr inbounds i8, ptr %.06297, i64 5
  %60 = add i32 %.16794, 1
  br label %61

61:                                               ; preds = %.lr.ph, %58
  %.2 = phi i32 [ %60, %58 ], [ %.16794, %.lr.ph ]
  %.163 = phi ptr [ %59, %58 ], [ %.06297, %.lr.ph ]
  %62 = add nuw i32 %.198, 1
  %63 = getelementptr inbounds i8, ptr %.06495, i64 5
  %exitcond111.not = icmp eq i32 %62, %.us-phi
  br i1 %exitcond111.not, label %._crit_edge, label %.lr.ph, !llvm.loop !34

._crit_edge:                                      ; preds = %61
  %64 = icmp eq i32 %.2, 0
  br i1 %64, label %._crit_edge.thread, label %thread-pre-split

._crit_edge.thread:                               ; preds = %.preheader89.split.us, %.preheader, %._crit_edge
  %.068115117125128 = phi ptr [ %.068115117, %._crit_edge ], [ %.068115117, %.preheader ], [ %28, %.preheader89.split.us ]
  %65 = load ptr, ptr %18, align 8
  %.not81 = icmp eq ptr %65, %.068115117125128
  br i1 %.not81, label %67, label %66

66:                                               ; preds = %._crit_edge.thread
  tail call void @png_free(ptr noundef nonnull %0, ptr noundef nonnull %.068115117125128) #12
  br label %thread-pre-split

thread-pre-split:                                 ; preds = %33, %._crit_edge, %66, %34
  %.169.ph = phi ptr [ null, %34 ], [ null, %66 ], [ %.068115117, %._crit_edge ], [ null, %33 ]
  %.3.ph = phi i32 [ 0, %34 ], [ 0, %66 ], [ %.2, %._crit_edge ], [ 0, %33 ]
  %.pr = load ptr, ptr %18, align 8
  br label %67

67:                                               ; preds = %thread-pre-split, %._crit_edge.thread
  %68 = phi ptr [ %.pr, %thread-pre-split ], [ %65, %._crit_edge.thread ]
  %.169 = phi ptr [ %.169.ph, %thread-pre-split ], [ null, %._crit_edge.thread ]
  %.3 = phi i32 [ %.3.ph, %thread-pre-split ], [ 0, %._crit_edge.thread ]
  store i32 %.3, ptr %16, align 4
  %.not82 = icmp eq ptr %68, %.169
  br i1 %.not82, label %72, label %69

69:                                               ; preds = %67
  %.not83 = icmp eq ptr %68, null
  br i1 %.not83, label %71, label %70

70:                                               ; preds = %69
  tail call void @png_free(ptr noundef nonnull %0, ptr noundef nonnull %68) #12
  br label %71

71:                                               ; preds = %70, %69
  store ptr %.169, ptr %18, align 8
  br label %72

72:                                               ; preds = %10, %4, %71, %67, %23, %15, %7
  ret void
}